; Function Attrs: inlinehint mustprogress nounwind optsize uwtable
define internal noundef ptr @"_ZZN8nanobind6detail11func_createILb0ELb1EZL29nanobind_init_test_chrono_extRNS_7module_EE3$_2NSt6chrono8durationIlSt5ratioILl1ELl1000000000EEEEJS9_EJLm0EEJNS_5scopeENS_4nameEEEEP7_objectOT1_PFT2_DpT3_ESt16integer_sequenceImJXspT4_EEEDpRKT5_ENUlPvPSD_PhNS_9rv_policyEPNS0_12cleanup_listEE_8__invokeESR_SS_ST_SU_SW_"(ptr readnone captures(none) %0, ptr noundef readonly captures(none) %1, ptr noundef readonly captures(none) %2, i32 noundef %3, ptr noundef %4) #8 align 2 {
  %6 = alloca %"struct.nanobind::detail::tuple.36", align 8
  %7 = alloca %"class.std::chrono::duration", align 8
  call void @llvm.lifetime.start.p0(i64 8, ptr nonnull %6) #16
  %8 = load ptr, ptr %1, align 8, !tbaa !68
  %9 = load i8, ptr %2, align 1, !tbaa !34
  %10 = call noundef zeroext i1 @_ZN8nanobind6detail15duration_casterINSt6chrono8durationIlSt5ratioILl1ELl1000000000EEEEE11from_pythonENS_6handleEhPNS0_12cleanup_listE(ptr noundef nonnull align 8 dereferenceable(8) %6, ptr %8, i8 noundef zeroext %9, ptr noundef %4) #17
  br i1 %10, label %11, label %"_ZZN8nanobind6detail11func_createILb0ELb1EZL29nanobind_init_test_chrono_extRNS_7module_EE3$_2NSt6chrono8durationIlSt5ratioILl1ELl1000000000EEEEJS9_EJLm0EEJNS_5scopeENS_4nameEEEEP7_objectOT1_PFT2_DpT3_ESt16integer_sequenceImJXspT4_EEEDpRKT5_ENKUlPvPSD_PhNS_9rv_policyEPNS0_12cleanup_listEE_clESR_SS_ST_SU_SW_.exit"

11:                                               ; preds = %5
  call void @llvm.lifetime.start.p0(i64 8, ptr nonnull %7) #16
  %.sroa.0.0.copyload.i = load i64, ptr %6, align 8, !tbaa !78
  store i64 %.sroa.0.0.copyload.i, ptr %7, align 8
  %12 = call ptr @_ZN8nanobind6detail15duration_casterINSt6chrono8durationIlSt5ratioILl1ELl1000000000EEEEE8from_cppERKS6_NS_9rv_policyEPNS0_12cleanup_listE(ptr noundef nonnull align 8 dereferenceable(8) %7, i32 noundef %3, ptr noundef %4) #17
  call void @llvm.lifetime.end.p0(i64 8, ptr nonnull %7) #16
  br label %"_ZZN8nanobind6detail11func_createILb0ELb1EZL29nanobind_init_test_chrono_extRNS_7module_EE3$_2NSt6chrono8durationIlSt5ratioILl1ELl1000000000EEEEJS9_EJLm0EEJNS_5scopeENS_4nameEEEEP7_objectOT1_PFT2_DpT3_ESt16integer_sequenceImJXspT4_EEEDpRKT5_ENKUlPvPSD_PhNS_9rv_policyEPNS0_12cleanup_listEE_clESR_SS_ST_SU_SW_.exit"

"_ZZN8nanobind6detail11func_createILb0ELb1EZL29nanobind_init_test_chrono_extRNS_7module_EE3$_2NSt6chrono8durationIlSt5ratioILl1ELl1000000000EEEEJS9_EJLm0EEJNS_5scopeENS_4nameEEEEP7_objectOT1_PFT2_DpT3_ESt16integer_sequenceImJXspT4_EEEDpRKT5_ENKUlPvPSD_PhNS_9rv_policyEPNS0_12cleanup_listEE_clESR_SS_ST_SU_SW_.exit": ; preds = %5, %11
  %.0.i = phi ptr [ %12, %11 ], [ inttoptr (i64 1 to ptr), %5 ]
  call void @llvm.lifetime.end.p0(i64 8, ptr nonnull %6) #16
  ret ptr %.0.i
}